; Function Attrs: mustprogress uwtable
define { ptr, i64 } @_ZNK7rocksdb22SecondaryIndexIterator5valueEv(ptr noundef nonnull readonly align 8 captures(none) dereferenceable(64) %0) local_unnamed_addr #1 align 2 {
  %2 = getelementptr inbounds nuw i8, ptr %0, i64 8
  %3 = load ptr, ptr %2, align 8, !tbaa !32
  %4 = load ptr, ptr %3, align 8, !tbaa !38
  %5 = getelementptr inbounds nuw i8, ptr %4, i64 112
  %6 = load ptr, ptr %5, align 8
  %7 = tail call { ptr, i64 } %6(ptr noundef nonnull align 8 dereferenceable(40) %3)
  ret { ptr, i64 } %7
}